; Function Attrs: mustprogress nofree norecurse nosync nounwind willreturn memory(read, inaccessiblemem: none) uwtable
define dso_local { <2 x float>, <2 x float> } @_ZNK17btConvexHullShape37localGetSupportingVertexWithoutMarginERK9btVector3(ptr noundef nonnull readonly align 8 captures(none) dereferenceable(152) %0, ptr noundef nonnull readonly align 4 captures(none) dereferenceable(16) %1) unnamed_addr #6 align 2 {
  %3 = getelementptr inbounds nuw i8, ptr %0, i64 124
  %4 = load i32, ptr %3, align 4, !tbaa !16
  %5 = icmp sgt i32 %4, 0
  br i1 %5, label %.lr.ph.i, label %45

.lr.ph.i:                                         ; preds = %2
  %6 = getelementptr inbounds nuw i8, ptr %0, i64 32
  %7 = load float, ptr %1, align 4, !tbaa !26
  %8 = load float, ptr %6, align 8, !tbaa !26
  %9 = fmul float %7, %8
  %10 = getelementptr inbounds nuw i8, ptr %1, i64 4
  %11 = load float, ptr %10, align 4, !tbaa !26
  %12 = getelementptr inbounds nuw i8, ptr %0, i64 36
  %13 = load float, ptr %12, align 4, !tbaa !26
  %14 = fmul float %11, %13
  %15 = getelementptr inbounds nuw i8, ptr %1, i64 8
  %16 = load float, ptr %15, align 4, !tbaa !26
  %17 = getelementptr inbounds nuw i8, ptr %0, i64 40
  %18 = load float, ptr %17, align 8, !tbaa !26
  %19 = fmul float %16, %18
  %20 = getelementptr inbounds nuw i8, ptr %0, i64 136
  %21 = load ptr, ptr %20, align 8, !tbaa !15
  %22 = zext nneg i32 %4 to i64
  br label %23

23:                                               ; preds = %23, %.lr.ph.i
  %indvars.iv.i = phi i64 [ 0, %.lr.ph.i ], [ %indvars.iv.next.i, %23 ]
  %.019.i = phi float [ 0xC7EFFFFFE0000000, %.lr.ph.i ], [ %.1.i, %23 ]
  %.01218.i = phi i32 [ -1, %.lr.ph.i ], [ %.113.i, %23 ]
  %24 = getelementptr inbounds nuw %class.btVector3, ptr %21, i64 %indvars.iv.i
  %25 = load float, ptr %24, align 4, !tbaa !26
  %26 = getelementptr inbounds nuw i8, ptr %24, i64 4
  %27 = load float, ptr %26, align 4, !tbaa !26
  %28 = fmul float %14, %27
  %29 = tail call float @llvm.fmuladd.f32(float %25, float %9, float %28)
  %30 = getelementptr inbounds nuw i8, ptr %24, i64 8
  %31 = load float, ptr %30, align 4, !tbaa !26
  %32 = tail call noundef float @llvm.fmuladd.f32(float %31, float %19, float %29)
  %33 = fcmp ogt float %32, %.019.i
  %34 = trunc nuw nsw i64 %indvars.iv.i to i32
  %.113.i = select i1 %33, i32 %34, i32 %.01218.i
  %.1.i = select i1 %33, float %32, float %.019.i
  %indvars.iv.next.i = add nuw nsw i64 %indvars.iv.i, 1
  %exitcond.not.i = icmp eq i64 %indvars.iv.next.i, %22
  br i1 %exitcond.not.i, label %_ZNK9btVector36maxDotEPKS_lRf.exit, label %23, !llvm.loop !29

_ZNK9btVector36maxDotEPKS_lRf.exit:               ; preds = %23
  %35 = sext i32 %.113.i to i64
  %36 = getelementptr inbounds %class.btVector3, ptr %21, i64 %35
  %37 = load float, ptr %36, align 4, !tbaa !26
  %38 = fmul float %8, %37
  %39 = getelementptr inbounds nuw i8, ptr %36, i64 4
  %40 = load float, ptr %39, align 4, !tbaa !26
  %41 = fmul float %13, %40
  %42 = getelementptr inbounds nuw i8, ptr %36, i64 8
  %43 = load float, ptr %42, align 4, !tbaa !26
  %44 = fmul float %18, %43
  %.sroa.0.0.vec.insert.i2 = insertelement <2 x float> poison, float %38, i64 0
  %.sroa.0.4.vec.insert.i3 = insertelement <2 x float> %.sroa.0.0.vec.insert.i2, float %41, i64 1
  %.sroa.3.12.vec.insert.i4 = insertelement <2 x float> <float poison, float 0.000000e+00>, float %44, i64 0
  %.fca.0.insert.i5 = insertvalue { <2 x float>, <2 x float> } poison, <2 x float> %.sroa.0.4.vec.insert.i3, 0
  %.fca.1.insert.i6 = insertvalue { <2 x float>, <2 x float> } %.fca.0.insert.i5, <2 x float> %.sroa.3.12.vec.insert.i4, 1
  br label %45

45:                                               ; preds = %2, %_ZNK9btVector36maxDotEPKS_lRf.exit
  %.fca.1.insert.merged = phi { <2 x float>, <2 x float> } [ %.fca.1.insert.i6, %_ZNK9btVector36maxDotEPKS_lRf.exit ], [ zeroinitializer, %2 ]
  ret { <2 x float>, <2 x float> } %.fca.1.insert.merged
}